target datalayout = "e-m:e-p270:32:32-p271:32:32-p272:64:64-i64:64-i128:128-f80:128-n8:16:32:64-S128"
target triple = "x86_64-pc-linux-gnu"

%struct.GraphLockableMainloop = type {}

@.str.1 = private unnamed_addr constant [19 x i8] c"../qemu/blockdev.c\00", align 1
@__func__.qmp_get_root_bs = private unnamed_addr constant [16 x i8] c"qmp_get_root_bs\00", align 1
@.str.210 = private unnamed_addr constant [23 x i8] c"Need a root block node\00", align 1
@.str.211 = private unnamed_addr constant [21 x i8] c"Device has no medium\00", align 1

; Function Attrs: inlinehint nounwind sspstrong uwtable
define internal void @graph_lockable_auto_unlock_mainloop(ptr noundef %0) #5 {
  %2 = alloca ptr, align 8
  store ptr %0, ptr %2, align 8
  call void @bdrv_graph_rdunlock_main_loop()
  ret void
}

; Function Attrs: inlinehint nounwind sspstrong uwtable
define internal void @glib_autoptr_clear_GraphLockableMainloop(ptr noundef %0) #5 {
  %2 = alloca ptr, align 8
  store ptr %0, ptr %2, align 8
  %3 = load ptr, ptr %2, align 8
  %4 = icmp ne ptr %3, null
  br i1 %4, label %5, label %7

5:                                                ; preds = %1
  %6 = load ptr, ptr %2, align 8
  call void @graph_lockable_auto_unlock_mainloop(ptr noundef %6)
  br label %7

7:                                                ; preds = %5, %1
  ret void
}

; Function Attrs: inlinehint nounwind sspstrong uwtable
define internal void @glib_autoptr_cleanup_GraphLockableMainloop(ptr noundef %0) #5 {
  %2 = alloca ptr, align 8
  store ptr %0, ptr %2, align 8
  %3 = load ptr, ptr %2, align 8
  %4 = load ptr, ptr %3, align 8
  call void @glib_autoptr_clear_GraphLockableMainloop(ptr noundef %4)
  ret void
}

; Function Attrs: inlinehint nounwind sspstrong uwtable
define internal ptr @graph_lockable_auto_lock_mainloop(ptr noundef %0) #5 {
  %2 = alloca ptr, align 8
  store ptr %0, ptr %2, align 8
  call void @bdrv_graph_rdlock_main_loop()
  %3 = load ptr, ptr %2, align 8
  ret ptr %3
}

; Function Attrs: nounwind sspstrong uwtable
define internal ptr @qmp_get_root_bs(ptr noundef %0, ptr noundef %1) #0 {
  %3 = alloca ptr, align 8
  %4 = alloca ptr, align 8
  %5 = alloca ptr, align 8
  %6 = alloca ptr, align 8
  %7 = alloca ptr, align 8
  %8 = alloca %struct.GraphLockableMainloop, align 1
  %9 = alloca i32, align 4
  store ptr %0, ptr %4, align 8
  store ptr %1, ptr %5, align 8
  call void @llvm.lifetime.start.p0(i64 8, ptr %6) #16
  store ptr null, ptr %6, align 8, !annotation !4
  call void @llvm.lifetime.start.p0(i64 8, ptr %7) #16
  %10 = call ptr @graph_lockable_auto_lock_mainloop(ptr noundef %8)
  store ptr %10, ptr %7, align 8
  %11 = load ptr, ptr %4, align 8
  %12 = load ptr, ptr %4, align 8
  %13 = load ptr, ptr %5, align 8
  %14 = call ptr @bdrv_lookup_bs(ptr noundef %11, ptr noundef %12, ptr noundef %13)
  store ptr %14, ptr %6, align 8
  %15 = load ptr, ptr %6, align 8
  %16 = icmp eq ptr %15, null
  br i1 %16, label %17, label %18

17:                                               ; preds = %2
  store ptr null, ptr %3, align 8
  store i32 1, ptr %9, align 4
  br label %30

18:                                               ; preds = %2
  %19 = load ptr, ptr %6, align 8
  %20 = call zeroext i1 @bdrv_is_root_node(ptr noundef %19)
  br i1 %20, label %23, label %21

21:                                               ; preds = %18
  %22 = load ptr, ptr %5, align 8
  call void (ptr, ptr, i32, ptr, ptr, ...) @error_setg_internal(ptr noundef %22, ptr noundef @.str.1, i32 noundef 1051, ptr noundef @__func__.qmp_get_root_bs, ptr noundef @.str.210)
  store ptr null, ptr %3, align 8
  store i32 1, ptr %9, align 4
  br label %30

23:                                               ; preds = %18
  %24 = load ptr, ptr %6, align 8
  %25 = call zeroext i1 @bdrv_is_inserted(ptr noundef %24)
  br i1 %25, label %28, label %26

26:                                               ; preds = %23
  %27 = load ptr, ptr %5, align 8
  call void (ptr, ptr, i32, ptr, ptr, ...) @error_setg_internal(ptr noundef %27, ptr noundef @.str.1, i32 noundef 1056, ptr noundef @__func__.qmp_get_root_bs, ptr noundef @.str.211)
  store ptr null, ptr %6, align 8
  br label %28

28:                                               ; preds = %26, %23
  %29 = load ptr, ptr %6, align 8
  store ptr %29, ptr %3, align 8
  store i32 1, ptr %9, align 4
  br label %30

30:                                               ; preds = %28, %21, %17
  call void @glib_autoptr_cleanup_GraphLockableMainloop(ptr noundef %7)
  call void @llvm.lifetime.end.p0(i64 8, ptr %7) #16
  call void @llvm.lifetime.end.p0(i64 8, ptr %6) #16
  %31 = load ptr, ptr %3, align 8
  ret ptr %31
}