; Function Attrs: nounwind sspstrong uwtable
define internal fastcc ptr @qmp_get_root_bs(ptr noundef %0, ptr noundef %1) unnamed_addr #0 {
  tail call void @bdrv_graph_rdlock_main_loop() #14
  %3 = tail call ptr @bdrv_lookup_bs(ptr noundef %0, ptr noundef %0, ptr noundef %1) #14
  %4 = icmp eq ptr %3, null
  br i1 %4, label %glib_autoptr_cleanup_GraphLockableMainloop.exit, label %5

5:                                                ; preds = %2
  %6 = tail call zeroext i1 @bdrv_is_root_node(ptr noundef nonnull %3) #14
  br i1 %6, label %8, label %7

7:                                                ; preds = %5
  tail call void (ptr, ptr, i32, ptr, ptr, ...) @error_setg_internal(ptr noundef %1, ptr noundef nonnull @.str.1, i32 noundef 1051, ptr noundef nonnull @__func__.qmp_get_root_bs, ptr noundef nonnull @.str.210) #14
  br label %glib_autoptr_cleanup_GraphLockableMainloop.exit

8:                                                ; preds = %5
  %9 = tail call zeroext i1 @bdrv_is_inserted(ptr noundef nonnull %3) #14
  br i1 %9, label %glib_autoptr_cleanup_GraphLockableMainloop.exit, label %10

10:                                               ; preds = %8
  tail call void (ptr, ptr, i32, ptr, ptr, ...) @error_setg_internal(ptr noundef %1, ptr noundef nonnull @.str.1, i32 noundef 1056, ptr noundef nonnull @__func__.qmp_get_root_bs, ptr noundef nonnull @.str.211) #14
  br label %glib_autoptr_cleanup_GraphLockableMainloop.exit

glib_autoptr_cleanup_GraphLockableMainloop.exit:  ; preds = %8, %10, %2, %7
  %.010 = phi ptr [ null, %7 ], [ null, %2 ], [ %3, %8 ], [ null, %10 ]
  tail call void @bdrv_graph_rdunlock_main_loop() #14
  ret ptr %.010
}